; ModuleID = 'source-C-CXX/28/352.c'
source_filename = "source-C-CXX/28/352.c"
target datalayout = "e-m:e-p270:32:32-p271:32:32-p272:64:64-i64:64-f80:128-n8:16:32:64-S128"
target triple = "x86_64-pc-linux-gnu"

%struct._IO_FILE = type { i32, i8*, i8*, i8*, i8*, i8*, i8*, i8*, i8*, i8*, i8*, i8*, %struct._IO_marker*, %struct._IO_FILE*, i32, i32, i64, i16, i8, [1 x i8], i8*, i64, %struct._IO_codecvt*, %struct._IO_wide_data*, %struct._IO_FILE*, i8*, i64, i32, [20 x i8] }
%struct._IO_marker = type opaque
%struct._IO_codecvt = type opaque
%struct._IO_wide_data = type opaque

@.str = private unnamed_addr constant [3 x i8] c"%d\00", align 1
@.str.1 = private unnamed_addr constant [6 x i8] c"%.3f\0A\00", align 1
@stdin = external local_unnamed_addr global %struct._IO_FILE*, align 8

; Function Attrs: nofree nosync nounwind readnone sspstrong uwtable
define dso_local float @f(i32 %0) local_unnamed_addr #0 {
  %2 = icmp ult i32 %0, 2
  br i1 %2, label %3, label %5

3:                                                ; preds = %1, %5
  %4 = phi float [ %10, %5 ], [ 1.000000e+00, %1 ]
  ret float %4

5:                                                ; preds = %1
  %6 = add nsw i32 %0, -1
  %7 = tail call float @f(i32 %6)
  %8 = add nsw i32 %0, -2
  %9 = tail call float @f(i32 %8)
  %10 = fadd float %7, %9
  br label %3
}

; Function Attrs: argmemonly mustprogress nofree nosync nounwind willreturn
declare void @llvm.lifetime.start.p0i8(i64 immarg, i8* nocapture) #1

; Function Attrs: argmemonly mustprogress nofree nosync nounwind willreturn
declare void @llvm.lifetime.end.p0i8(i64 immarg, i8* nocapture) #1

; Function Attrs: nofree nounwind sspstrong uwtable
define dso_local i32 @main() local_unnamed_addr #2 {
  %1 = alloca i32, align 4
  %2 = alloca i32, align 4
  %3 = bitcast i32* %1 to i8*
  call void @llvm.lifetime.start.p0i8(i64 4, i8* nonnull %3) #4
  %4 = bitcast i32* %2 to i8*
  call void @llvm.lifetime.start.p0i8(i64 4, i8* nonnull %4) #4
  %5 = call i32 (i8*, ...) @__isoc99_scanf(i8* getelementptr inbounds ([3 x i8], [3 x i8]* @.str, i64 0, i64 0), i32* nonnull %1)
  %6 = load i32, i32* %1, align 4, !tbaa !5
  %7 = icmp sgt i32 %6, 0
  br i1 %7, label %8, label %29

8:                                                ; preds = %0, %22
  %9 = phi i32 [ %26, %22 ], [ 0, %0 ]
  %10 = call i32 (i8*, ...) @__isoc99_scanf(i8* getelementptr inbounds ([3 x i8], [3 x i8]* @.str, i64 0, i64 0), i32* nonnull %2)
  %11 = load i32, i32* %2, align 4, !tbaa !5
  %12 = icmp slt i32 %11, 1
  br i1 %12, label %22, label %13

13:                                               ; preds = %8, %13
  %14 = phi float [ %20, %13 ], [ 0.000000e+00, %8 ]
  %15 = phi i32 [ %16, %13 ], [ 1, %8 ]
  %16 = add nuw i32 %15, 1
  %17 = call float @f(i32 %16)
  %18 = call float @f(i32 %15)
  %19 = fdiv float %17, %18
  %20 = fadd float %14, %19
  %21 = icmp eq i32 %15, %11
  br i1 %21, label %22, label %13, !llvm.loop !9

22:                                               ; preds = %13, %8
  %23 = phi float [ 0.000000e+00, %8 ], [ %20, %13 ]
  %24 = fpext float %23 to double
  %25 = call i32 (i8*, ...) @printf(i8* nonnull dereferenceable(1) getelementptr inbounds ([6 x i8], [6 x i8]* @.str.1, i64 0, i64 0), double %24)
  %26 = add nuw nsw i32 %9, 1
  %27 = load i32, i32* %1, align 4, !tbaa !5
  %28 = icmp slt i32 %26, %27
  br i1 %28, label %8, label %29, !llvm.loop !11

29:                                               ; preds = %22, %0
  %30 = load %struct._IO_FILE*, %struct._IO_FILE** @stdin, align 8, !tbaa !12
  %31 = call i32 @getc(%struct._IO_FILE* %30) #4
  %32 = load %struct._IO_FILE*, %struct._IO_FILE** @stdin, align 8, !tbaa !12
  %33 = call i32 @getc(%struct._IO_FILE* %32) #4
  call void @llvm.lifetime.end.p0i8(i64 4, i8* nonnull %4) #4
  call void @llvm.lifetime.end.p0i8(i64 4, i8* nonnull %3) #4
  ret i32 0
}

; Function Attrs: nofree nounwind
declare noundef i32 @__isoc99_scanf(i8* nocapture noundef readonly, ...) local_unnamed_addr #3

; Function Attrs: nofree nounwind
declare noundef i32 @printf(i8* nocapture noundef readonly, ...) local_unnamed_addr #3

; Function Attrs: nofree nounwind
declare noundef i32 @getc(%struct._IO_FILE* nocapture noundef) local_unnamed_addr #3


!llvm.module.flags = !{!0, !1, !2, !3}
!llvm.ident = !{!4}

!0 = !{i32 1, !"wchar_size", i32 4}
!1 = !{i32 7, !"PIC Level", i32 2}
!2 = !{i32 7, !"PIE Level", i32 2}
!3 = !{i32 7, !"uwtable", i32 1}
!4 = !{!"clang version 13.0.0"}
!5 = !{!6, !6, i64 0}
!6 = !{!"int", !7, i64 0}
!7 = !{!"omnipotent char", !8, i64 0}
!8 = !{!"Simple C/C++ TBAA"}
!9 = distinct !{!9, !10}
!10 = !{!"llvm.loop.mustprogress"}
!11 = distinct !{!11, !10}
!12 = !{!13, !13, i64 0}
!13 = !{!"any pointer", !7, i64 0}
